target datalayout = "e-m:e-p270:32:32-p271:32:32-p272:64:64-i64:64-i128:128-f80:128-n8:16:32:64-S128"
target triple = "x86_64-pc-linux-gnu"

%struct.strvec = type { ptr, i64, i64 }
%struct.strbuf = type { i64, i64, ptr }
%struct.child_process = type { %struct.strvec, %struct.strvec, i32, i32, i64, ptr, ptr, i32, i32, i32, ptr, i16, ptr }
%struct.hashmap_entry = type { ptr, i32 }
%struct.path_entry = type { %struct.hashmap_entry, [0 x i8] }

@the_repository = external global ptr, align 8
@.str.40 = private unnamed_addr constant [3 x i8] c"-z\00", align 1
@.str.52 = private unnamed_addr constant [26 x i8] c"could not obtain raw diff\00", align 1
@.str.53 = private unnamed_addr constant [2 x i8] c"r\00", align 1
@.str.83 = private unnamed_addr constant [27 x i8] c"size_t overflow: %lu + %lu\00", align 1
@__const.changed_files.buf = private unnamed_addr constant %struct.strbuf { i64 0, i64 0, ptr @strbuf_slopbuf }, align 8
@.str.85 = private unnamed_addr constant [10 x i8] c"--git-dir\00", align 1
@.str.86 = private unnamed_addr constant [12 x i8] c"--work-tree\00", align 1
@.str.87 = private unnamed_addr constant [13 x i8] c"update-index\00", align 1
@.str.88 = private unnamed_addr constant [17 x i8] c"--really-refresh\00", align 1
@.str.89 = private unnamed_addr constant [3 x i8] c"-q\00", align 1
@.str.90 = private unnamed_addr constant [11 x i8] c"--unmerged\00", align 1
@.str.91 = private unnamed_addr constant [18 x i8] c"GIT_INDEX_FILE=%s\00", align 1
@.str.92 = private unnamed_addr constant [11 x i8] c"diff-files\00", align 1
@.str.93 = private unnamed_addr constant [12 x i8] c"--name-only\00", align 1
@.str.94 = private unnamed_addr constant [33 x i8] c"diff-files did not exit properly\00", align 1

; Function Attrs: inlinehint nounwind uwtable
define internal void @hashmap_entry_init(ptr noundef %0, i32 noundef %1) #4 {
  %3 = alloca ptr, align 8
  %4 = alloca i32, align 4
  store ptr %0, ptr %3, align 8, !tbaa !86
  store i32 %1, ptr %4, align 4, !tbaa !4
  %5 = load i32, ptr %4, align 4, !tbaa !4
  %6 = load ptr, ptr %3, align 8, !tbaa !86
  %7 = getelementptr inbounds nuw %struct.hashmap_entry, ptr %6, i32 0, i32 1
  store i32 %5, ptr %7, align 8, !tbaa !101
  %8 = load ptr, ptr %3, align 8, !tbaa !86
  %9 = getelementptr inbounds nuw %struct.hashmap_entry, ptr %8, i32 0, i32 0
  store ptr null, ptr %9, align 8, !tbaa !103
  ret void
}

; Function Attrs: inlinehint nounwind uwtable
define internal i64 @st_add(i64 noundef %0, i64 noundef %1) #4 {
  %3 = alloca i64, align 8
  %4 = alloca i64, align 8
  store i64 %0, ptr %3, align 8, !tbaa !65
  store i64 %1, ptr %4, align 8, !tbaa !65
  %5 = load i64, ptr %4, align 8, !tbaa !65
  %6 = load i64, ptr %3, align 8, !tbaa !65
  %7 = sub i64 -1, %6
  %8 = icmp ugt i64 %5, %7
  br i1 %8, label %9, label %12

9:                                                ; preds = %2
  %10 = load i64, ptr %3, align 8, !tbaa !65
  %11 = load i64, ptr %4, align 8, !tbaa !65
  call void (ptr, ...) @die(ptr noundef @.str.83, i64 noundef %10, i64 noundef %11) #10
  unreachable

12:                                               ; preds = %2
  %13 = load i64, ptr %3, align 8, !tbaa !65
  %14 = load i64, ptr %4, align 8, !tbaa !65
  %15 = add i64 %13, %14
  ret i64 %15
}

; Function Attrs: nounwind uwtable
define internal void @changed_files(ptr noundef %0, ptr noundef %1, ptr noundef %2) #0 {
  %4 = alloca ptr, align 8
  %5 = alloca ptr, align 8
  %6 = alloca ptr, align 8
  %7 = alloca %struct.child_process, align 8
  %8 = alloca %struct.child_process, align 8
  %9 = alloca %struct.strbuf, align 8
  %10 = alloca ptr, align 8
  %11 = alloca ptr, align 8
  %12 = alloca ptr, align 8
  %13 = alloca i64, align 8
  store ptr %0, ptr %4, align 8, !tbaa !97
  store ptr %1, ptr %5, align 8, !tbaa !11
  store ptr %2, ptr %6, align 8, !tbaa !11
  call void @llvm.lifetime.start.p0(i64 120, ptr %7) #9
  call void @llvm.memcpy.p0.p0.i64(ptr align 8 %7, ptr align 8 @__const.changed_files.update_index, i64 120, i1 false)
  call void @llvm.lifetime.start.p0(i64 120, ptr %8) #9
  call void @llvm.memcpy.p0.p0.i64(ptr align 8 %8, ptr align 8 @__const.changed_files.diff_files, i64 120, i1 false)
  call void @llvm.lifetime.start.p0(i64 24, ptr %9) #9
  call void @llvm.memcpy.p0.p0.i64(ptr align 8 %9, ptr align 8 @__const.changed_files.buf, i64 24, i1 false)
  call void @llvm.lifetime.start.p0(i64 8, ptr %10) #9
  %14 = load ptr, ptr @the_repository, align 8, !tbaa !13
  %15 = call ptr @repo_get_git_dir(ptr noundef %14)
  %16 = call ptr @absolute_path(ptr noundef %15)
  store ptr %16, ptr %10, align 8, !tbaa !11
  call void @llvm.lifetime.start.p0(i64 8, ptr %11) #9
  %17 = getelementptr inbounds nuw %struct.child_process, ptr %7, i32 0, i32 0
  %18 = load ptr, ptr %10, align 8, !tbaa !11
  %19 = load ptr, ptr %6, align 8, !tbaa !11
  call void (ptr, ...) @strvec_pushl(ptr noundef %17, ptr noundef @.str.85, ptr noundef %18, ptr noundef @.str.86, ptr noundef %19, ptr noundef @.str.87, ptr noundef @.str.88, ptr noundef @.str.89, ptr noundef @.str.90, ptr noundef null)
  %20 = getelementptr inbounds nuw %struct.child_process, ptr %7, i32 0, i32 11
  %21 = load i16, ptr %20, align 8
  %22 = and i16 %21, -2
  %23 = or i16 %22, 1
  store i16 %23, ptr %20, align 8
  %24 = getelementptr inbounds nuw %struct.child_process, ptr %7, i32 0, i32 11
  %25 = load i16, ptr %24, align 8
  %26 = and i16 %25, -3
  %27 = or i16 %26, 2
  store i16 %27, ptr %24, align 8
  %28 = getelementptr inbounds nuw %struct.child_process, ptr %7, i32 0, i32 11
  %29 = load i16, ptr %28, align 8
  %30 = and i16 %29, -5
  %31 = or i16 %30, 4
  store i16 %31, ptr %28, align 8
  %32 = getelementptr inbounds nuw %struct.child_process, ptr %7, i32 0, i32 11
  %33 = load i16, ptr %32, align 8
  %34 = and i16 %33, -9
  %35 = or i16 %34, 8
  store i16 %35, ptr %32, align 8
  %36 = getelementptr inbounds nuw %struct.child_process, ptr %7, i32 0, i32 11
  %37 = load i16, ptr %36, align 8
  %38 = and i16 %37, -33
  %39 = or i16 %38, 0
  store i16 %39, ptr %36, align 8
  %40 = getelementptr inbounds nuw %struct.child_process, ptr %7, i32 0, i32 11
  %41 = load i16, ptr %40, align 8
  %42 = and i16 %41, -257
  %43 = or i16 %42, 256
  store i16 %43, ptr %40, align 8
  %44 = load ptr, ptr %6, align 8, !tbaa !11
  %45 = getelementptr inbounds nuw %struct.child_process, ptr %7, i32 0, i32 10
  store ptr %44, ptr %45, align 8, !tbaa !66
  %46 = getelementptr inbounds nuw %struct.child_process, ptr %7, i32 0, i32 1
  %47 = load ptr, ptr %5, align 8, !tbaa !11
  %48 = call ptr (ptr, ptr, ...) @strvec_pushf(ptr noundef %46, ptr noundef @.str.91, ptr noundef %47)
  %49 = call i32 @run_command(ptr noundef %7)
  %50 = getelementptr inbounds nuw %struct.child_process, ptr %8, i32 0, i32 0
  %51 = load ptr, ptr %10, align 8, !tbaa !11
  %52 = load ptr, ptr %6, align 8, !tbaa !11
  call void (ptr, ...) @strvec_pushl(ptr noundef %50, ptr noundef @.str.85, ptr noundef %51, ptr noundef @.str.86, ptr noundef %52, ptr noundef @.str.92, ptr noundef @.str.93, ptr noundef @.str.40, ptr noundef null)
  %53 = getelementptr inbounds nuw %struct.child_process, ptr %8, i32 0, i32 11
  %54 = load i16, ptr %53, align 8
  %55 = and i16 %54, -2
  %56 = or i16 %55, 1
  store i16 %56, ptr %53, align 8
  %57 = getelementptr inbounds nuw %struct.child_process, ptr %8, i32 0, i32 11
  %58 = load i16, ptr %57, align 8
  %59 = and i16 %58, -9
  %60 = or i16 %59, 8
  store i16 %60, ptr %57, align 8
  %61 = getelementptr inbounds nuw %struct.child_process, ptr %8, i32 0, i32 11
  %62 = load i16, ptr %61, align 8
  %63 = and i16 %62, -33
  %64 = or i16 %63, 0
  store i16 %64, ptr %61, align 8
  %65 = getelementptr inbounds nuw %struct.child_process, ptr %8, i32 0, i32 11
  %66 = load i16, ptr %65, align 8
  %67 = and i16 %66, -257
  %68 = or i16 %67, 256
  store i16 %68, ptr %65, align 8
  %69 = getelementptr inbounds nuw %struct.child_process, ptr %8, i32 0, i32 8
  store i32 -1, ptr %69, align 4, !tbaa !69
  %70 = load ptr, ptr %6, align 8, !tbaa !11
  %71 = getelementptr inbounds nuw %struct.child_process, ptr %8, i32 0, i32 10
  store ptr %70, ptr %71, align 8, !tbaa !66
  %72 = getelementptr inbounds nuw %struct.child_process, ptr %8, i32 0, i32 1
  %73 = load ptr, ptr %5, align 8, !tbaa !11
  %74 = call ptr (ptr, ptr, ...) @strvec_pushf(ptr noundef %72, ptr noundef @.str.91, ptr noundef %73)
  %75 = call i32 @start_command(ptr noundef %8)
  %76 = icmp ne i32 %75, 0
  br i1 %76, label %77, label %78

77:                                               ; preds = %3
  call void (ptr, ...) @die(ptr noundef @.str.52) #10
  unreachable

78:                                               ; preds = %3
  %79 = getelementptr inbounds nuw %struct.child_process, ptr %8, i32 0, i32 8
  %80 = load i32, ptr %79, align 4, !tbaa !69
  %81 = call ptr @xfdopen(i32 noundef %80, ptr noundef @.str.53)
  store ptr %81, ptr %11, align 8, !tbaa !39
  br label %82

82:                                               ; preds = %103, %78
  %83 = load ptr, ptr %11, align 8, !tbaa !39
  %84 = call i32 @strbuf_getline_nul(ptr noundef %9, ptr noundef %83)
  %85 = icmp ne i32 %84, 0
  %86 = xor i1 %85, true
  br i1 %86, label %87, label %112

87:                                               ; preds = %82
  call void @llvm.lifetime.start.p0(i64 8, ptr %12) #9
  br label %88

88:                                               ; preds = %87
  call void @llvm.lifetime.start.p0(i64 8, ptr %13) #9
  %89 = getelementptr inbounds nuw %struct.strbuf, ptr %9, i32 0, i32 2
  %90 = load ptr, ptr %89, align 8, !tbaa !56
  %91 = call i64 @strlen(ptr noundef %90) #11
  store i64 %91, ptr %13, align 8, !tbaa !65
  %92 = load i64, ptr %13, align 8, !tbaa !65
  %93 = call i64 @st_add(i64 noundef 16, i64 noundef %92)
  %94 = call i64 @st_add(i64 noundef %93, i64 noundef 1)
  %95 = call ptr @xcalloc(i64 noundef 1, i64 noundef %94)
  store ptr %95, ptr %12, align 8, !tbaa !88
  %96 = load ptr, ptr %12, align 8, !tbaa !88
  %97 = getelementptr inbounds nuw %struct.path_entry, ptr %96, i32 0, i32 1
  %98 = getelementptr inbounds [0 x i8], ptr %97, i64 0, i64 0
  %99 = getelementptr inbounds nuw %struct.strbuf, ptr %9, i32 0, i32 2
  %100 = load ptr, ptr %99, align 8, !tbaa !56
  %101 = load i64, ptr %13, align 8, !tbaa !65
  call void @llvm.memcpy.p0.p0.i64(ptr align 8 %98, ptr align 1 %100, i64 %101, i1 false)
  call void @llvm.lifetime.end.p0(i64 8, ptr %13) #9
  br label %102

102:                                              ; preds = %88
  br label %103

103:                                              ; preds = %102
  %104 = load ptr, ptr %12, align 8, !tbaa !88
  %105 = getelementptr inbounds nuw %struct.path_entry, ptr %104, i32 0, i32 0
  %106 = getelementptr inbounds nuw %struct.strbuf, ptr %9, i32 0, i32 2
  %107 = load ptr, ptr %106, align 8, !tbaa !56
  %108 = call i32 @strhash(ptr noundef %107)
  call void @hashmap_entry_init(ptr noundef %105, i32 noundef %108)
  %109 = load ptr, ptr %4, align 8, !tbaa !97
  %110 = load ptr, ptr %12, align 8, !tbaa !88
  %111 = getelementptr inbounds nuw %struct.path_entry, ptr %110, i32 0, i32 0
  call void @hashmap_add(ptr noundef %109, ptr noundef %111)
  call void @llvm.lifetime.end.p0(i64 8, ptr %12) #9
  br label %82, !llvm.loop !122

112:                                              ; preds = %82
  %113 = load ptr, ptr %11, align 8, !tbaa !39
  %114 = call i32 @fclose(ptr noundef %113)
  %115 = call i32 @finish_command(ptr noundef %8)
  %116 = icmp ne i32 %115, 0
  br i1 %116, label %117, label %118

117:                                              ; preds = %112
  call void (ptr, ...) @die(ptr noundef @.str.94) #10
  unreachable

118:                                              ; preds = %112
  call void @strbuf_release(ptr noundef %9)
  call void @llvm.lifetime.end.p0(i64 8, ptr %11) #9
  call void @llvm.lifetime.end.p0(i64 8, ptr %10) #9
  call void @llvm.lifetime.end.p0(i64 24, ptr %9) #9
  call void @llvm.lifetime.end.p0(i64 120, ptr %8) #9
  call void @llvm.lifetime.end.p0(i64 120, ptr %7) #9
  ret void
}