; Function Attrs: nounwind uwtable
define internal fastcc void @changed_files(ptr noundef nonnull %0, ptr noundef %1, ptr noundef %2) unnamed_addr #0 {
  %4 = alloca %struct.child_process, align 8
  %5 = alloca %struct.child_process, align 8
  %6 = alloca %struct.strbuf, align 8
  call void @llvm.lifetime.start.p0(i64 120, ptr nonnull %4) #18
  call void @llvm.memcpy.p0.p0.i64(ptr noundef nonnull align 8 dereferenceable(120) %4, ptr noundef nonnull align 8 dereferenceable(120) @__const.changed_files.diff_files, i64 120, i1 false)
  call void @llvm.lifetime.start.p0(i64 120, ptr nonnull %5) #18
  call void @llvm.memcpy.p0.p0.i64(ptr noundef nonnull align 8 dereferenceable(120) %5, ptr noundef nonnull align 8 dereferenceable(120) @__const.changed_files.diff_files, i64 120, i1 false)
  call void @llvm.lifetime.start.p0(i64 24, ptr nonnull %6) #18
  call void @llvm.memcpy.p0.p0.i64(ptr noundef nonnull align 8 dereferenceable(24) %6, ptr noundef nonnull align 8 dereferenceable(24) @__const.changed_files.buf, i64 24, i1 false)
  %7 = load ptr, ptr @the_repository, align 8, !tbaa !21
  %8 = tail call ptr @repo_get_git_dir(ptr noundef %7) #18
  %9 = tail call ptr @absolute_path(ptr noundef %8) #18
  call void (ptr, ...) @strvec_pushl(ptr noundef nonnull %4, ptr noundef nonnull @.str.85, ptr noundef %9, ptr noundef nonnull @.str.86, ptr noundef %2, ptr noundef nonnull @.str.87, ptr noundef nonnull @.str.88, ptr noundef nonnull @.str.89, ptr noundef nonnull @.str.90, ptr noundef null) #18
  %10 = getelementptr inbounds nuw i8, ptr %4, i64 104
  %11 = load i16, ptr %10, align 8
  %12 = and i16 %11, -304
  %13 = or disjoint i16 %12, 271
  store i16 %13, ptr %10, align 8
  %14 = getelementptr inbounds nuw i8, ptr %4, i64 96
  store ptr %2, ptr %14, align 8, !tbaa !54
  %15 = getelementptr inbounds nuw i8, ptr %4, i64 24
  %16 = call ptr (ptr, ptr, ...) @strvec_pushf(ptr noundef nonnull %15, ptr noundef nonnull @.str.91, ptr noundef %1) #18
  %17 = call i32 @run_command(ptr noundef nonnull %4) #18
  call void (ptr, ...) @strvec_pushl(ptr noundef nonnull %5, ptr noundef nonnull @.str.85, ptr noundef %9, ptr noundef nonnull @.str.86, ptr noundef %2, ptr noundef nonnull @.str.92, ptr noundef nonnull @.str.93, ptr noundef nonnull @.str.40, ptr noundef null) #18
  %18 = getelementptr inbounds nuw i8, ptr %5, i64 104
  %19 = load i16, ptr %18, align 8
  %20 = and i16 %19, -298
  %21 = or disjoint i16 %20, 265
  store i16 %21, ptr %18, align 8
  %22 = getelementptr inbounds nuw i8, ptr %5, i64 84
  store i32 -1, ptr %22, align 4, !tbaa !58
  %23 = getelementptr inbounds nuw i8, ptr %5, i64 96
  store ptr %2, ptr %23, align 8, !tbaa !54
  %24 = getelementptr inbounds nuw i8, ptr %5, i64 24
  %25 = call ptr (ptr, ptr, ...) @strvec_pushf(ptr noundef nonnull %24, ptr noundef nonnull @.str.91, ptr noundef %1) #18
  %26 = call i32 @start_command(ptr noundef nonnull %5) #18
  %.not = icmp eq i32 %26, 0
  br i1 %.not, label %28, label %27

27:                                               ; preds = %3
  call void (ptr, ...) @die(ptr noundef nonnull @.str.52) #19
  unreachable

28:                                               ; preds = %3
  %29 = load i32, ptr %22, align 4, !tbaa !58
  %30 = call ptr @xfdopen(i32 noundef %29, ptr noundef nonnull @.str.53) #18
  %31 = call i32 @strbuf_getline_nul(ptr noundef nonnull %6, ptr noundef %30) #18
  %.not1519 = icmp eq i32 %31, 0
  br i1 %.not1519, label %.lr.ph, label %._crit_edge

.lr.ph:                                           ; preds = %28
  %32 = getelementptr inbounds nuw i8, ptr %6, i64 16
  br label %33

33:                                               ; preds = %.lr.ph, %st_add.exit17
  %34 = load ptr, ptr %32, align 8, !tbaa !44
  %35 = call i64 @strlen(ptr noundef nonnull dereferenceable(1) %34) #20
  %36 = icmp ugt i64 %35, -17
  br i1 %36, label %37, label %st_add.exit

37:                                               ; preds = %33
  call void (ptr, ...) @die(ptr noundef nonnull @.str.83, i64 noundef 16, i64 noundef %35) #19
  unreachable

st_add.exit:                                      ; preds = %33
  %38 = icmp eq i64 %35, -17
  br i1 %38, label %39, label %st_add.exit17

39:                                               ; preds = %st_add.exit
  call void (ptr, ...) @die(ptr noundef nonnull @.str.83, i64 noundef -1, i64 noundef 1) #19
  unreachable

st_add.exit17:                                    ; preds = %st_add.exit
  %40 = add nuw i64 %35, 17
  %41 = call ptr @xcalloc(i64 noundef 1, i64 noundef %40) #18
  %42 = getelementptr inbounds nuw i8, ptr %41, i64 16
  %43 = load ptr, ptr %32, align 8, !tbaa !44
  call void @llvm.memcpy.p0.p0.i64(ptr nonnull align 8 %42, ptr align 1 %43, i64 %35, i1 false)
  %44 = load ptr, ptr %32, align 8, !tbaa !44
  %45 = call i32 @strhash(ptr noundef %44) #18
  %46 = getelementptr inbounds nuw i8, ptr %41, i64 8
  store i32 %45, ptr %46, align 8, !tbaa !61
  store ptr null, ptr %41, align 8, !tbaa !64
  call void @hashmap_add(ptr noundef nonnull %0, ptr noundef nonnull %41) #18
  %47 = call i32 @strbuf_getline_nul(ptr noundef nonnull %6, ptr noundef %30) #18
  %.not15 = icmp eq i32 %47, 0
  br i1 %.not15, label %33, label %._crit_edge, !llvm.loop !90

._crit_edge:                                      ; preds = %st_add.exit17, %28
  %48 = call i32 @fclose(ptr noundef %30)
  %49 = call i32 @finish_command(ptr noundef nonnull %5) #18
  %.not16 = icmp eq i32 %49, 0
  br i1 %.not16, label %51, label %50

50:                                               ; preds = %._crit_edge
  call void (ptr, ...) @die(ptr noundef nonnull @.str.94) #19
  unreachable

51:                                               ; preds = %._crit_edge
  call void @strbuf_release(ptr noundef nonnull %6) #18
  call void @llvm.lifetime.end.p0(i64 24, ptr nonnull %6) #18
  call void @llvm.lifetime.end.p0(i64 120, ptr nonnull %5) #18
  call void @llvm.lifetime.end.p0(i64 120, ptr nonnull %4) #18
  ret void
}